; Function Attrs: nounwind uwtable
define ptr @l_List_foldl___at_Lean_Meta_RecursorInfo_instToString___spec__2(ptr noundef %0, ptr noundef %1) local_unnamed_addr #0 {
  br label %lean_dec.exit

lean_dec.exit:                                    ; preds = %lean_dec.exit.backedge, %2
  %.023 = phi ptr [ %1, %2 ], [ %25, %lean_dec.exit.backedge ]
  %.0 = phi ptr [ %0, %2 ], [ %.0.be, %lean_dec.exit.backedge ]
  %3 = ptrtoint ptr %.023 to i64
  %4 = and i64 %3, 1
  %.not.i33 = icmp eq i64 %4, 0
  br i1 %.not.i33, label %8, label %5

5:                                                ; preds = %lean_dec.exit
  %6 = lshr i64 %3, 1
  %7 = trunc i64 %6 to i32
  br label %lean_obj_tag.exit

8:                                                ; preds = %lean_dec.exit
  %9 = getelementptr i8, ptr %.023, i64 4
  %.val.i = load i32, ptr %9, align 4
  %10 = lshr i32 %.val.i, 24
  br label %lean_obj_tag.exit

lean_obj_tag.exit:                                ; preds = %5, %8
  %.0.i = phi i32 [ %7, %5 ], [ %10, %8 ]
  %11 = icmp eq i32 %.0.i, 0
  br i1 %11, label %12, label %13

12:                                               ; preds = %lean_obj_tag.exit
  ret ptr %.0

13:                                               ; preds = %lean_obj_tag.exit
  %14 = getelementptr inbounds nuw i8, ptr %.023, i64 8
  %15 = load ptr, ptr %14, align 8, !tbaa !4
  %16 = ptrtoint ptr %15 to i64
  %17 = and i64 %16, 1
  %.not = icmp eq i64 %17, 0
  br i1 %.not, label %18, label %lean_inc.exit26

18:                                               ; preds = %13
  %.val.i34 = load i32, ptr %15, align 4, !tbaa !8
  %19 = icmp sgt i32 %.val.i34, 0
  br i1 %19, label %20, label %22, !prof !11

20:                                               ; preds = %18
  %21 = add nuw i32 %.val.i34, 1
  store i32 %21, ptr %15, align 4, !tbaa !8
  br label %lean_inc.exit26

22:                                               ; preds = %18
  %.not.i35 = icmp eq i32 %.val.i34, 0
  br i1 %.not.i35, label %lean_inc.exit26, label %23

23:                                               ; preds = %22
  tail call void @lean_inc_ref_cold(ptr noundef nonnull %15) #6
  br label %lean_inc.exit26

lean_inc.exit26:                                  ; preds = %23, %22, %20, %13
  %24 = getelementptr inbounds nuw i8, ptr %.023, i64 16
  %25 = load ptr, ptr %24, align 8, !tbaa !4
  %26 = ptrtoint ptr %25 to i64
  %27 = and i64 %26, 1
  %.not46 = icmp eq i64 %27, 0
  br i1 %.not46, label %28, label %lean_inc.exit25

28:                                               ; preds = %lean_inc.exit26
  %.val.i36 = load i32, ptr %25, align 4, !tbaa !8
  %29 = icmp sgt i32 %.val.i36, 0
  br i1 %29, label %30, label %32, !prof !11

30:                                               ; preds = %28
  %31 = add nuw i32 %.val.i36, 1
  store i32 %31, ptr %25, align 4, !tbaa !8
  br label %lean_inc.exit25

32:                                               ; preds = %28
  %.not.i37 = icmp eq i32 %.val.i36, 0
  br i1 %.not.i37, label %lean_inc.exit25, label %33

33:                                               ; preds = %32
  tail call void @lean_inc_ref_cold(ptr noundef nonnull %25) #6
  br label %lean_inc.exit25

lean_inc.exit25:                                  ; preds = %33, %32, %30, %lean_inc.exit26
  br i1 %.not.i33, label %34, label %lean_dec.exit28

34:                                               ; preds = %lean_inc.exit25
  %35 = load i32, ptr %.023, align 4, !tbaa !8
  %36 = icmp sgt i32 %35, 1
  br i1 %36, label %37, label %39, !prof !11

37:                                               ; preds = %34
  %38 = add nsw i32 %35, -1
  store i32 %38, ptr %.023, align 4, !tbaa !8
  br label %lean_dec.exit28

39:                                               ; preds = %34
  %.not.i = icmp eq i32 %35, 0
  br i1 %.not.i, label %lean_dec.exit28, label %40

40:                                               ; preds = %39
  tail call void @lean_dec_ref_cold(ptr noundef nonnull %.023) #6
  br label %lean_dec.exit28

lean_dec.exit28:                                  ; preds = %40, %39, %37, %lean_inc.exit25
  %41 = load ptr, ptr @l_List_foldl___at_Lean_Meta_RecursorInfo_instToString___spec__2___closed__1, align 8, !tbaa !4
  %42 = tail call ptr @lean_string_append(ptr noundef %.0, ptr noundef %41) #6
  br i1 %.not, label %46, label %43

43:                                               ; preds = %lean_dec.exit28
  %44 = lshr i64 %16, 1
  %45 = trunc i64 %44 to i32
  br label %lean_obj_tag.exit42

46:                                               ; preds = %lean_dec.exit28
  %47 = getelementptr i8, ptr %15, i64 4
  %.val.i41 = load i32, ptr %47, align 4
  %48 = lshr i32 %.val.i41, 24
  br label %lean_obj_tag.exit42

lean_obj_tag.exit42:                              ; preds = %43, %46
  %.0.i40 = phi i32 [ %45, %43 ], [ %48, %46 ]
  %49 = icmp eq i32 %.0.i40, 0
  br i1 %49, label %50, label %53

50:                                               ; preds = %lean_obj_tag.exit42
  %51 = load ptr, ptr @l_Lean_Meta_instToStringRecursorUnivLevelPos___closed__1, align 8, !tbaa !4
  %52 = tail call ptr @lean_string_append(ptr noundef %42, ptr noundef %51) #6
  br label %lean_dec.exit.backedge

53:                                               ; preds = %lean_obj_tag.exit42
  %54 = getelementptr inbounds nuw i8, ptr %15, i64 8
  %55 = load ptr, ptr %54, align 8, !tbaa !4
  %56 = ptrtoint ptr %55 to i64
  %57 = and i64 %56, 1
  %.not48 = icmp eq i64 %57, 0
  br i1 %.not48, label %58, label %lean_inc.exit

58:                                               ; preds = %53
  %.val.i43 = load i32, ptr %55, align 4, !tbaa !8
  %59 = icmp sgt i32 %.val.i43, 0
  br i1 %59, label %60, label %62, !prof !11

60:                                               ; preds = %58
  %61 = add nuw i32 %.val.i43, 1
  store i32 %61, ptr %55, align 4, !tbaa !8
  br label %lean_inc.exit

62:                                               ; preds = %58
  %.not.i44 = icmp eq i32 %.val.i43, 0
  br i1 %.not.i44, label %lean_inc.exit, label %63

63:                                               ; preds = %62
  tail call void @lean_inc_ref_cold(ptr noundef nonnull %55) #6
  br label %lean_inc.exit

lean_inc.exit:                                    ; preds = %63, %62, %60, %53
  br i1 %.not, label %64, label %lean_dec.exit27

64:                                               ; preds = %lean_inc.exit
  %65 = load i32, ptr %15, align 4, !tbaa !8
  %66 = icmp sgt i32 %65, 1
  br i1 %66, label %67, label %69, !prof !11

67:                                               ; preds = %64
  %68 = add nsw i32 %65, -1
  store i32 %68, ptr %15, align 4, !tbaa !8
  br label %lean_dec.exit27

69:                                               ; preds = %64
  %.not.i29 = icmp eq i32 %65, 0
  br i1 %.not.i29, label %lean_dec.exit27, label %70

70:                                               ; preds = %69
  tail call void @lean_dec_ref_cold(ptr noundef nonnull %15) #6
  br label %lean_dec.exit27

lean_dec.exit27:                                  ; preds = %70, %69, %67, %lean_inc.exit
  %71 = tail call ptr @l___private_Init_Data_Repr_0__Nat_reprFast(ptr noundef %55) #6
  %72 = tail call ptr @lean_string_append(ptr noundef %42, ptr noundef %71) #6
  %73 = ptrtoint ptr %71 to i64
  %74 = and i64 %73, 1
  %.not49 = icmp eq i64 %74, 0
  br i1 %.not49, label %75, label %lean_dec.exit.backedge

lean_dec.exit.backedge:                           ; preds = %lean_dec.exit27, %78, %80, %81, %50
  %.0.be = phi ptr [ %72, %lean_dec.exit27 ], [ %72, %78 ], [ %72, %80 ], [ %72, %81 ], [ %52, %50 ]
  br label %lean_dec.exit

75:                                               ; preds = %lean_dec.exit27
  %76 = load i32, ptr %71, align 4, !tbaa !8
  %77 = icmp sgt i32 %76, 1
  br i1 %77, label %78, label %80, !prof !11

78:                                               ; preds = %75
  %79 = add nsw i32 %76, -1
  store i32 %79, ptr %71, align 4, !tbaa !8
  br label %lean_dec.exit.backedge

80:                                               ; preds = %75
  %.not.i31 = icmp eq i32 %76, 0
  br i1 %.not.i31, label %lean_dec.exit.backedge, label %81

81:                                               ; preds = %80
  tail call void @lean_dec_ref_cold(ptr noundef nonnull %71) #6
  br label %lean_dec.exit.backedge
}